target datalayout = "e-m:e-p270:32:32-p271:32:32-p272:64:64-i64:64-i128:128-f80:128-n8:16:32:64-S128"
target triple = "x86_64-unknown-linux-gnu"

%"class.icu_75::UnicodeString" = type { %"class.icu_75::Replaceable", %"union.icu_75::UnicodeString::StackBufferOrFields" }
%"class.icu_75::Replaceable" = type { %"class.icu_75::UObject" }
%"class.icu_75::UObject" = type { ptr }
%"union.icu_75::UnicodeString::StackBufferOrFields" = type { %struct.anon.0, [32 x i8] }
%struct.anon.0 = type { i16, i32, i32, ptr }
%"class.icu_75::CompoundTransliterator" = type { %"class.icu_75::Transliterator.base", ptr, i32, i32 }
%"class.icu_75::Transliterator.base" = type <{ %"class.icu_75::UObject", %"class.icu_75::UnicodeString", ptr, i32 }>
%struct.UTransPosition = type { i32, i32, i32, i32 }

; Function Attrs: mustprogress uwtable
define void @_ZNK6icu_7522CompoundTransliterator19handleTransliterateERNS_11ReplaceableER14UTransPositiona(ptr noundef nonnull align 8 dereferenceable(104) %this, ptr noundef nonnull align 8 dereferenceable(8) %text, ptr noundef nonnull align 4 dereferenceable(16) %index, i8 noundef signext %incremental) unnamed_addr #1 align 2 {
entry:
  %this.addr = alloca ptr, align 8
  %text.addr = alloca ptr, align 8
  %index.addr = alloca ptr, align 8
  %incremental.addr = alloca i8, align 1
  %compoundLimit = alloca i32, align 4
  %compoundStart = alloca i32, align 4
  %delta = alloca i32, align 4
  %i = alloca i32, align 4
  %limit7 = alloca i32, align 4
  store ptr %this, ptr %this.addr, align 8
  store ptr %text, ptr %text.addr, align 8
  store ptr %index, ptr %index.addr, align 8
  store i8 %incremental, ptr %incremental.addr, align 1
  %this1 = load ptr, ptr %this.addr, align 8
  %count = getelementptr inbounds %"class.icu_75::CompoundTransliterator", ptr %this1, i32 0, i32 2
  %0 = load i32, ptr %count, align 8
  %cmp = icmp slt i32 %0, 1
  br i1 %cmp, label %if.then, label %if.end

if.then:                                          ; preds = %entry
  %1 = load ptr, ptr %index.addr, align 8
  %limit = getelementptr inbounds %struct.UTransPosition, ptr %1, i32 0, i32 3
  %2 = load i32, ptr %limit, align 4
  %3 = load ptr, ptr %index.addr, align 8
  %start = getelementptr inbounds %struct.UTransPosition, ptr %3, i32 0, i32 2
  store i32 %2, ptr %start, align 4
  br label %return

if.end:                                           ; preds = %entry
  %4 = load ptr, ptr %index.addr, align 8
  %limit2 = getelementptr inbounds %struct.UTransPosition, ptr %4, i32 0, i32 3
  %5 = load i32, ptr %limit2, align 4
  store i32 %5, ptr %compoundLimit, align 4
  %6 = load ptr, ptr %index.addr, align 8
  %start3 = getelementptr inbounds %struct.UTransPosition, ptr %6, i32 0, i32 2
  %7 = load i32, ptr %start3, align 4
  store i32 %7, ptr %compoundStart, align 4
  store i32 0, ptr %delta, align 4
  store i32 0, ptr %i, align 4
  br label %for.cond

for.cond:                                         ; preds = %for.inc, %if.end
  %8 = load i32, ptr %i, align 4
  %count4 = getelementptr inbounds %"class.icu_75::CompoundTransliterator", ptr %this1, i32 0, i32 2
  %9 = load i32, ptr %count4, align 8
  %cmp5 = icmp slt i32 %8, %9
  br i1 %cmp5, label %for.body, label %for.end

for.body:                                         ; preds = %for.cond
  %10 = load i32, ptr %compoundStart, align 4
  %11 = load ptr, ptr %index.addr, align 8
  %start6 = getelementptr inbounds %struct.UTransPosition, ptr %11, i32 0, i32 2
  store i32 %10, ptr %start6, align 4
  %12 = load ptr, ptr %index.addr, align 8
  %limit8 = getelementptr inbounds %struct.UTransPosition, ptr %12, i32 0, i32 3
  %13 = load i32, ptr %limit8, align 4
  store i32 %13, ptr %limit7, align 4
  %14 = load ptr, ptr %index.addr, align 8
  %start9 = getelementptr inbounds %struct.UTransPosition, ptr %14, i32 0, i32 2
  %15 = load i32, ptr %start9, align 4
  %16 = load ptr, ptr %index.addr, align 8
  %limit10 = getelementptr inbounds %struct.UTransPosition, ptr %16, i32 0, i32 3
  %17 = load i32, ptr %limit10, align 4
  %cmp11 = icmp eq i32 %15, %17
  br i1 %cmp11, label %if.then12, label %if.end13

if.then12:                                        ; preds = %for.body
  br label %for.end

if.end13:                                         ; preds = %for.body
  %trans = getelementptr inbounds %"class.icu_75::CompoundTransliterator", ptr %this1, i32 0, i32 1
  %18 = load ptr, ptr %trans, align 8
  %19 = load i32, ptr %i, align 4
  %idxprom = sext i32 %19 to i64
  %arrayidx = getelementptr inbounds ptr, ptr %18, i64 %idxprom
  %20 = load ptr, ptr %arrayidx, align 8
  %21 = load ptr, ptr %text.addr, align 8
  %22 = load ptr, ptr %index.addr, align 8
  %23 = load i8, ptr %incremental.addr, align 1
  %vtable = load ptr, ptr %20, align 8
  %vfn = getelementptr inbounds ptr, ptr %vtable, i64 11
  %24 = load ptr, ptr %vfn, align 8
  call void %24(ptr noundef nonnull align 8 dereferenceable(84) %20, ptr noundef nonnull align 8 dereferenceable(8) %21, ptr noundef nonnull align 4 dereferenceable(16) %22, i8 noundef signext %23)
  %25 = load i8, ptr %incremental.addr, align 1
  %tobool = icmp ne i8 %25, 0
  br i1 %tobool, label %if.end20, label %land.lhs.true

land.lhs.true:                                    ; preds = %if.end13
  %26 = load ptr, ptr %index.addr, align 8
  %start14 = getelementptr inbounds %struct.UTransPosition, ptr %26, i32 0, i32 2
  %27 = load i32, ptr %start14, align 4
  %28 = load ptr, ptr %index.addr, align 8
  %limit15 = getelementptr inbounds %struct.UTransPosition, ptr %28, i32 0, i32 3
  %29 = load i32, ptr %limit15, align 4
  %cmp16 = icmp ne i32 %27, %29
  br i1 %cmp16, label %if.then17, label %if.end20

if.then17:                                        ; preds = %land.lhs.true
  %30 = load ptr, ptr %index.addr, align 8
  %limit18 = getelementptr inbounds %struct.UTransPosition, ptr %30, i32 0, i32 3
  %31 = load i32, ptr %limit18, align 4
  %32 = load ptr, ptr %index.addr, align 8
  %start19 = getelementptr inbounds %struct.UTransPosition, ptr %32, i32 0, i32 2
  store i32 %31, ptr %start19, align 4
  br label %if.end20

if.end20:                                         ; preds = %if.then17, %land.lhs.true, %if.end13
  %33 = load ptr, ptr %index.addr, align 8
  %limit21 = getelementptr inbounds %struct.UTransPosition, ptr %33, i32 0, i32 3
  %34 = load i32, ptr %limit21, align 4
  %35 = load i32, ptr %limit7, align 4
  %sub = sub nsw i32 %34, %35
  %36 = load i32, ptr %delta, align 4
  %add = add nsw i32 %36, %sub
  store i32 %add, ptr %delta, align 4
  %37 = load i8, ptr %incremental.addr, align 1
  %tobool22 = icmp ne i8 %37, 0
  br i1 %tobool22, label %if.then23, label %if.end26

if.then23:                                        ; preds = %if.end20
  %38 = load ptr, ptr %index.addr, align 8
  %start24 = getelementptr inbounds %struct.UTransPosition, ptr %38, i32 0, i32 2
  %39 = load i32, ptr %start24, align 4
  %40 = load ptr, ptr %index.addr, align 8
  %limit25 = getelementptr inbounds %struct.UTransPosition, ptr %40, i32 0, i32 3
  store i32 %39, ptr %limit25, align 4
  br label %if.end26

if.end26:                                         ; preds = %if.then23, %if.end20
  br label %for.inc

for.inc:                                          ; preds = %if.end26
  %41 = load i32, ptr %i, align 4
  %inc = add nsw i32 %41, 1
  store i32 %inc, ptr %i, align 4
  br label %for.cond, !llvm.loop !19

for.end:                                          ; preds = %if.then12, %for.cond
  %42 = load i32, ptr %delta, align 4
  %43 = load i32, ptr %compoundLimit, align 4
  %add27 = add nsw i32 %43, %42
  store i32 %add27, ptr %compoundLimit, align 4
  %44 = load i32, ptr %compoundLimit, align 4
  %45 = load ptr, ptr %index.addr, align 8
  %limit28 = getelementptr inbounds %struct.UTransPosition, ptr %45, i32 0, i32 3
  store i32 %44, ptr %limit28, align 4
  br label %return

return:                                           ; preds = %for.end, %if.then
  ret void
}