; Function Attrs: mustprogress uwtable
define void @_ZNK6icu_7522CompoundTransliterator19handleTransliterateERNS_11ReplaceableER14UTransPositiona(ptr nocapture noundef nonnull readonly align 8 dereferenceable(104) %this, ptr noundef nonnull align 8 dereferenceable(8) %text, ptr noundef nonnull align 4 dereferenceable(16) %index, i8 noundef signext %incremental) unnamed_addr #1 align 2 {
entry:
  %count = getelementptr inbounds i8, ptr %this, i64 96
  %0 = load i32, ptr %count, align 8
  %cmp = icmp slt i32 %0, 1
  %limit = getelementptr inbounds i8, ptr %index, i64 12
  %1 = load i32, ptr %limit, align 4
  %start = getelementptr inbounds i8, ptr %index, i64 8
  br i1 %cmp, label %if.then, label %for.body.lr.ph

if.then:                                          ; preds = %entry
  store i32 %1, ptr %start, align 4
  br label %return

for.body.lr.ph:                                   ; preds = %entry
  %2 = load i32, ptr %start, align 4
  %trans = getelementptr inbounds i8, ptr %this, i64 88
  %tobool.not = icmp eq i8 %incremental, 0
  br i1 %tobool.not, label %for.body.us, label %for.body

for.body.us:                                      ; preds = %for.body.lr.ph, %if.end20.thread.us
  %3 = phi i32 [ %8, %if.end20.thread.us ], [ %1, %for.body.lr.ph ]
  %indvars.iv35 = phi i64 [ %indvars.iv.next36, %if.end20.thread.us ], [ 0, %for.body.lr.ph ]
  %delta.028.us = phi i32 [ %add26.us, %if.end20.thread.us ], [ 0, %for.body.lr.ph ]
  store i32 %2, ptr %start, align 4
  %cmp11.us = icmp eq i32 %2, %3
  br i1 %cmp11.us, label %for.end, label %if.end13.us

if.end13.us:                                      ; preds = %for.body.us
  %4 = load ptr, ptr %trans, align 8
  %arrayidx.us = getelementptr inbounds ptr, ptr %4, i64 %indvars.iv35
  %5 = load ptr, ptr %arrayidx.us, align 8
  %vtable.us = load ptr, ptr %5, align 8
  %vfn.us = getelementptr inbounds i8, ptr %vtable.us, i64 88
  %6 = load ptr, ptr %vfn.us, align 8
  tail call void %6(ptr noundef nonnull align 8 dereferenceable(84) %5, ptr noundef nonnull align 8 dereferenceable(8) %text, ptr noundef nonnull align 4 dereferenceable(16) %index, i8 noundef signext 0)
  %7 = load i32, ptr %start, align 4
  %8 = load i32, ptr %limit, align 4
  %cmp16.not.us = icmp eq i32 %7, %8
  br i1 %cmp16.not.us, label %if.end20.thread.us, label %if.then17.us

if.then17.us:                                     ; preds = %if.end13.us
  store i32 %8, ptr %start, align 4
  br label %if.end20.thread.us

if.end20.thread.us:                               ; preds = %if.then17.us, %if.end13.us
  %sub24.pn.us = sub i32 %delta.028.us, %3
  %add26.us = add i32 %sub24.pn.us, %8
  %indvars.iv.next36 = add nuw nsw i64 %indvars.iv35, 1
  %9 = load i32, ptr %count, align 8
  %10 = sext i32 %9 to i64
  %cmp5.us = icmp slt i64 %indvars.iv.next36, %10
  br i1 %cmp5.us, label %for.body.us, label %for.end, !llvm.loop !25

for.body:                                         ; preds = %for.body.lr.ph, %if.end13
  %11 = phi i32 [ %16, %if.end13 ], [ %1, %for.body.lr.ph ]
  %indvars.iv = phi i64 [ %indvars.iv.next, %if.end13 ], [ 0, %for.body.lr.ph ]
  %delta.028 = phi i32 [ %add26, %if.end13 ], [ 0, %for.body.lr.ph ]
  store i32 %2, ptr %start, align 4
  %cmp11 = icmp eq i32 %2, %11
  br i1 %cmp11, label %for.end, label %if.end13

if.end13:                                         ; preds = %for.body
  %12 = load ptr, ptr %trans, align 8
  %arrayidx = getelementptr inbounds ptr, ptr %12, i64 %indvars.iv
  %13 = load ptr, ptr %arrayidx, align 8
  %vtable = load ptr, ptr %13, align 8
  %vfn = getelementptr inbounds i8, ptr %vtable, i64 88
  %14 = load ptr, ptr %vfn, align 8
  tail call void %14(ptr noundef nonnull align 8 dereferenceable(84) %13, ptr noundef nonnull align 8 dereferenceable(8) %text, ptr noundef nonnull align 4 dereferenceable(16) %index, i8 noundef signext %incremental)
  %15 = load i32, ptr %limit, align 4
  %16 = load i32, ptr %start, align 4
  store i32 %16, ptr %limit, align 4
  %sub24.pn = sub i32 %delta.028, %11
  %add26 = add i32 %sub24.pn, %15
  %indvars.iv.next = add nuw nsw i64 %indvars.iv, 1
  %17 = load i32, ptr %count, align 8
  %18 = sext i32 %17 to i64
  %cmp5 = icmp slt i64 %indvars.iv.next, %18
  br i1 %cmp5, label %for.body, label %for.end, !llvm.loop !25

for.end:                                          ; preds = %if.end13, %for.body, %if.end20.thread.us, %for.body.us
  %delta.0.lcssa = phi i32 [ %delta.028.us, %for.body.us ], [ %add26.us, %if.end20.thread.us ], [ %delta.028, %for.body ], [ %add26, %if.end13 ]
  %add27 = add nsw i32 %delta.0.lcssa, %1
  store i32 %add27, ptr %limit, align 4
  br label %return

return:                                           ; preds = %for.end, %if.then
  ret void
}